target datalayout = "e-m:e-p270:32:32-p271:32:32-p272:64:64-i64:64-i128:128-f80:128-n8:16:32:64-S128"
target triple = "x86_64-pc-linux-gnu"

%struct.WarpedMotionParams = type { [8 x i32], i16, i16, i16, i16, i8, i8 }
%struct.WarpTypesAllowed = type { i32, i32 }
%struct.MB_MODE_INFO = type <{ i8, i8, i8, i8, i32, [2 x %union.int_mv], [2 x i8], [2 x i8], %union.int_interpfilters, i8, i8, i8, i8, %struct.WarpedMotionParams, i8, i8, [6 x i8], %struct.INTERINTER_COMPOUND_DATA, [2 x i8], %struct.FILTER_INTRA_MODE_INFO, i8, i8, %struct.PALETTE_MODE_INFO, i8, i8, [16 x i8], i8, [4 x i8], i16, [7 x i8] }>
%union.int_mv = type { i32 }
%union.int_interpfilters = type { i32 }
%struct.INTERINTER_COMPOUND_DATA = type { ptr, i8, i8, i8, i8 }
%struct.FILTER_INTRA_MODE_INFO = type { i8, i8 }
%struct.PALETTE_MODE_INFO = type { [24 x i16], [2 x i8] }
%struct.scale_factors = type { i32, i32, i32, i32, ptr, ptr }
%struct.InterPredParams = type { i32, i32, %struct.WarpedMotionParams, %struct.ConvolveParams, [2 x ptr], i32, i32, i32, i32, %struct.buf_2d, i32, i32, ptr, i32, i32, %struct.INTERINTER_COMPOUND_DATA, i8, i32 }
%struct.ConvolveParams = type { i32, ptr, i32, i32, i32, i32, i32, i32, i32, i32 }
%struct.buf_2d = type { ptr, ptr, i32, i32, i32 }
%struct.macroblockd = type { i32, i32, i32, i8, [3 x %struct.macroblockd_plane], %struct.TileInfo, ptr, i8, i8, i8, i8, ptr, ptr, ptr, ptr, ptr, i32, i32, i32, i32, i32, [2 x ptr], ptr, [3 x ptr], [3 x [32 x i8]], ptr, [32 x i8], ptr, ptr, [32 x i8], [3 x %struct.WienerInfo], [3 x %struct.SgrprojInfo], i8, i8, [29 x [8 x %struct.candidate_mv]], [29 x [8 x i16]], i8, i8, [8 x i8], ptr, i32, [8 x i32], [8 x i32], i32, i32, ptr, ptr, i8, [4 x i8], [4 x i8], [7 x i8], [32768 x i8], %struct.cfl_ctx, [2 x i16], ptr, [2 x ptr] }
%struct.macroblockd_plane = type { i8, i32, i32, %struct.buf_2d, [2 x %struct.buf_2d], ptr, ptr, [8 x [2 x i16]], ptr, i8, i8, [8 x [19 x ptr]], [8 x [19 x ptr]] }
%struct.TileInfo = type { i32, i32, i32, i32, i32, i32 }
%struct.WienerInfo = type { [8 x i16], [8 x i16] }
%struct.SgrprojInfo = type { i32, [2 x i32] }
%struct.candidate_mv = type { %union.int_mv, %union.int_mv }
%struct.cfl_ctx = type { [1024 x i16], [1024 x i16], [2 x i32], i32, [2 x [32 x i16]], i32, i32, i32, i32, i32, i32 }

@default_warp_params = internal constant %struct.WarpedMotionParams { [8 x i32] [i32 0, i32 0, i32 65536, i32 0, i32 0, i32 65536, i32 0, i32 0], i16 0, i16 0, i16 0, i16 0, i8 0, i8 0 }, align 4

; Function Attrs: nounwind uwtable
define internal i32 @av1_is_valid_scale(ptr noundef %0) #0 {
  %2 = alloca ptr, align 8
  store ptr %0, ptr %2, align 8
  %3 = load ptr, ptr %2, align 8
  %4 = getelementptr inbounds nuw %struct.scale_factors, ptr %3, i32 0, i32 0
  %5 = load i32, ptr %4, align 8
  %6 = icmp ne i32 %5, -1
  br i1 %6, label %7, label %12

7:                                                ; preds = %1
  %8 = load ptr, ptr %2, align 8
  %9 = getelementptr inbounds nuw %struct.scale_factors, ptr %8, i32 0, i32 1
  %10 = load i32, ptr %9, align 4
  %11 = icmp ne i32 %10, -1
  br label %12

12:                                               ; preds = %7, %1
  %13 = phi i1 [ false, %1 ], [ %11, %7 ]
  %14 = zext i1 %13 to i32
  ret i32 %14
}

; Function Attrs: nounwind uwtable
define internal i32 @av1_is_scaled(ptr noundef %0) #0 {
  %2 = alloca ptr, align 8
  store ptr %0, ptr %2, align 8
  %3 = load ptr, ptr %2, align 8
  %4 = call i32 @av1_is_valid_scale(ptr noundef %3)
  %5 = icmp ne i32 %4, 0
  br i1 %5, label %6, label %18

6:                                                ; preds = %1
  %7 = load ptr, ptr %2, align 8
  %8 = getelementptr inbounds nuw %struct.scale_factors, ptr %7, i32 0, i32 0
  %9 = load i32, ptr %8, align 8
  %10 = icmp ne i32 %9, 16384
  br i1 %10, label %16, label %11

11:                                               ; preds = %6
  %12 = load ptr, ptr %2, align 8
  %13 = getelementptr inbounds nuw %struct.scale_factors, ptr %12, i32 0, i32 1
  %14 = load i32, ptr %13, align 4
  %15 = icmp ne i32 %14, 16384
  br label %16

16:                                               ; preds = %11, %6
  %17 = phi i1 [ true, %6 ], [ %15, %11 ]
  br label %18

18:                                               ; preds = %16, %1
  %19 = phi i1 [ false, %1 ], [ %17, %16 ]
  %20 = zext i1 %19 to i32
  ret i32 %20
}

; Function Attrs: nounwind uwtable
define hidden i32 @av1_allow_warp(ptr noundef %0, ptr noundef %1, ptr noundef %2, i32 noundef %3, ptr noundef %4, ptr noundef %5) #0 {
  %7 = alloca i32, align 4
  %8 = alloca ptr, align 8
  %9 = alloca ptr, align 8
  %10 = alloca ptr, align 8
  %11 = alloca i32, align 4
  %12 = alloca ptr, align 8
  %13 = alloca ptr, align 8
  store ptr %0, ptr %8, align 8
  store ptr %1, ptr %9, align 8
  store ptr %2, ptr %10, align 8
  store i32 %3, ptr %11, align 4
  store ptr %4, ptr %12, align 8
  store ptr %5, ptr %13, align 8
  %14 = load ptr, ptr %12, align 8
  %15 = call i32 @av1_is_scaled(ptr noundef %14)
  %16 = icmp ne i32 %15, 0
  br i1 %16, label %17, label %18

17:                                               ; preds = %6
  store i32 0, ptr %7, align 4
  br label %65

18:                                               ; preds = %6
  %19 = load ptr, ptr %13, align 8
  %20 = icmp ne ptr %19, null
  br i1 %20, label %21, label %23

21:                                               ; preds = %18
  %22 = load ptr, ptr %13, align 8
  call void @llvm.memcpy.p0.p0.i64(ptr align 4 %22, ptr align 4 @default_warp_params, i64 44, i1 false)
  br label %23

23:                                               ; preds = %21, %18
  %24 = load i32, ptr %11, align 4
  %25 = icmp ne i32 %24, 0
  br i1 %25, label %26, label %27

26:                                               ; preds = %23
  store i32 0, ptr %7, align 4
  br label %65

27:                                               ; preds = %23
  %28 = load ptr, ptr %9, align 8
  %29 = getelementptr inbounds nuw %struct.WarpTypesAllowed, ptr %28, i32 0, i32 1
  %30 = load i32, ptr %29, align 4
  %31 = icmp ne i32 %30, 0
  br i1 %31, label %32, label %46

32:                                               ; preds = %27
  %33 = load ptr, ptr %8, align 8
  %34 = getelementptr inbounds nuw %struct.MB_MODE_INFO, ptr %33, i32 0, i32 13
  %35 = getelementptr inbounds nuw %struct.WarpedMotionParams, ptr %34, i32 0, i32 6
  %36 = load i8, ptr %35, align 1
  %37 = icmp ne i8 %36, 0
  br i1 %37, label %46, label %38

38:                                               ; preds = %32
  %39 = load ptr, ptr %13, align 8
  %40 = icmp ne ptr %39, null
  br i1 %40, label %41, label %45

41:                                               ; preds = %38
  %42 = load ptr, ptr %13, align 8
  %43 = load ptr, ptr %8, align 8
  %44 = getelementptr inbounds nuw %struct.MB_MODE_INFO, ptr %43, i32 0, i32 13
  call void @llvm.memcpy.p0.p0.i64(ptr align 4 %42, ptr align 4 %44, i64 44, i1 false)
  br label %45

45:                                               ; preds = %41, %38
  store i32 1, ptr %7, align 4
  br label %65

46:                                               ; preds = %32, %27
  %47 = load ptr, ptr %9, align 8
  %48 = getelementptr inbounds nuw %struct.WarpTypesAllowed, ptr %47, i32 0, i32 0
  %49 = load i32, ptr %48, align 4
  %50 = icmp ne i32 %49, 0
  br i1 %50, label %51, label %63

51:                                               ; preds = %46
  %52 = load ptr, ptr %10, align 8
  %53 = getelementptr inbounds nuw %struct.WarpedMotionParams, ptr %52, i32 0, i32 6
  %54 = load i8, ptr %53, align 1
  %55 = icmp ne i8 %54, 0
  br i1 %55, label %63, label %56

56:                                               ; preds = %51
  %57 = load ptr, ptr %13, align 8
  %58 = icmp ne ptr %57, null
  br i1 %58, label %59, label %62

59:                                               ; preds = %56
  %60 = load ptr, ptr %13, align 8
  %61 = load ptr, ptr %10, align 8
  call void @llvm.memcpy.p0.p0.i64(ptr align 4 %60, ptr align 4 %61, i64 44, i1 false)
  br label %62

62:                                               ; preds = %59, %56
  store i32 1, ptr %7, align 4
  br label %65

63:                                               ; preds = %51, %46
  br label %64

64:                                               ; preds = %63
  store i32 0, ptr %7, align 4
  br label %65

65:                                               ; preds = %64, %62, %45, %26, %17
  %66 = load i32, ptr %7, align 4
  ret i32 %66
}

; Function Attrs: nounwind uwtable
define hidden void @av1_init_warp_params(ptr noundef %0, ptr noundef %1, i32 noundef %2, ptr noundef %3, ptr noundef %4) #0 {
  %6 = alloca ptr, align 8
  %7 = alloca ptr, align 8
  %8 = alloca i32, align 4
  %9 = alloca ptr, align 8
  %10 = alloca ptr, align 8
  store ptr %0, ptr %6, align 8
  store ptr %1, ptr %7, align 8
  store i32 %2, ptr %8, align 4
  store ptr %3, ptr %9, align 8
  store ptr %4, ptr %10, align 8
  %11 = load ptr, ptr %6, align 8
  %12 = getelementptr inbounds nuw %struct.InterPredParams, ptr %11, i32 0, i32 6
  %13 = load i32, ptr %12, align 4
  %14 = icmp slt i32 %13, 8
  br i1 %14, label %20, label %15

15:                                               ; preds = %5
  %16 = load ptr, ptr %6, align 8
  %17 = getelementptr inbounds nuw %struct.InterPredParams, ptr %16, i32 0, i32 5
  %18 = load i32, ptr %17, align 8
  %19 = icmp slt i32 %18, 8
  br i1 %19, label %20, label %21

20:                                               ; preds = %15, %5
  br label %51

21:                                               ; preds = %15
  %22 = load ptr, ptr %9, align 8
  %23 = getelementptr inbounds nuw %struct.macroblockd, ptr %22, i32 0, i32 44
  %24 = load i32, ptr %23, align 8
  %25 = icmp ne i32 %24, 0
  br i1 %25, label %26, label %27

26:                                               ; preds = %21
  br label %51

27:                                               ; preds = %21
  %28 = load ptr, ptr %10, align 8
  %29 = load ptr, ptr %7, align 8
  %30 = load ptr, ptr %9, align 8
  %31 = getelementptr inbounds nuw %struct.macroblockd, ptr %30, i32 0, i32 46
  %32 = load ptr, ptr %31, align 8
  %33 = load ptr, ptr %10, align 8
  %34 = getelementptr inbounds nuw %struct.MB_MODE_INFO, ptr %33, i32 0, i32 6
  %35 = load i32, ptr %8, align 4
  %36 = sext i32 %35 to i64
  %37 = getelementptr inbounds [2 x i8], ptr %34, i64 0, i64 %36
  %38 = load i8, ptr %37, align 1
  %39 = sext i8 %38 to i64
  %40 = getelementptr inbounds %struct.WarpedMotionParams, ptr %32, i64 %39
  %41 = load ptr, ptr %6, align 8
  %42 = getelementptr inbounds nuw %struct.InterPredParams, ptr %41, i32 0, i32 12
  %43 = load ptr, ptr %42, align 8
  %44 = load ptr, ptr %6, align 8
  %45 = getelementptr inbounds nuw %struct.InterPredParams, ptr %44, i32 0, i32 2
  %46 = call i32 @av1_allow_warp(ptr noundef %28, ptr noundef %29, ptr noundef %40, i32 noundef 0, ptr noundef %43, ptr noundef %45)
  %47 = icmp ne i32 %46, 0
  br i1 %47, label %48, label %51

48:                                               ; preds = %27
  %49 = load ptr, ptr %6, align 8
  %50 = getelementptr inbounds nuw %struct.InterPredParams, ptr %49, i32 0, i32 0
  store i32 1, ptr %50, align 8
  br label %51

51:                                               ; preds = %48, %27, %26, %20
  ret void
}