; Function Attrs: mustprogress nofree norecurse nosync nounwind willreturn memory(readwrite, inaccessiblemem: none) uwtable
define hidden void @av1_init_warp_params(ptr nocapture noundef %0, ptr nocapture noundef readonly %1, i32 noundef %2, ptr nocapture noundef readonly %3, ptr nocapture noundef readonly %4) local_unnamed_addr #0 {
  %6 = getelementptr inbounds nuw i8, ptr %0, i64 124
  %7 = load i32, ptr %6, align 4
  %8 = icmp slt i32 %7, 8
  br i1 %8, label %av1_allow_warp.exit.thread, label %9

9:                                                ; preds = %5
  %10 = getelementptr inbounds nuw i8, ptr %0, i64 120
  %11 = load i32, ptr %10, align 8
  %12 = icmp slt i32 %11, 8
  br i1 %12, label %av1_allow_warp.exit.thread, label %13

13:                                               ; preds = %9
  %14 = getelementptr inbounds nuw i8, ptr %3, i64 10728
  %15 = load i32, ptr %14, align 8
  %.not = icmp eq i32 %15, 0
  br i1 %.not, label %16, label %av1_allow_warp.exit.thread

16:                                               ; preds = %13
  %17 = getelementptr inbounds nuw i8, ptr %3, i64 10744
  %18 = load ptr, ptr %17, align 8
  %19 = getelementptr inbounds nuw i8, ptr %4, i64 16
  %20 = sext i32 %2 to i64
  %21 = getelementptr inbounds [2 x i8], ptr %19, i64 0, i64 %20
  %22 = load i8, ptr %21, align 1
  %23 = sext i8 %22 to i64
  %24 = getelementptr inbounds %struct.WarpedMotionParams, ptr %18, i64 %23
  %25 = getelementptr inbounds nuw i8, ptr %0, i64 176
  %26 = load ptr, ptr %25, align 8
  %27 = getelementptr inbounds nuw i8, ptr %0, i64 8
  %28 = load i32, ptr %26, align 8
  %.not.i.i.i = icmp eq i32 %28, -1
  br i1 %.not.i.i.i, label %av1_is_scaled.exit.thread.i, label %av1_is_valid_scale.exit.i.i

av1_is_valid_scale.exit.i.i:                      ; preds = %16
  %29 = getelementptr inbounds nuw i8, ptr %26, i64 4
  %30 = load i32, ptr %29, align 4
  %.not5.i.i = icmp eq i32 %30, -1
  br i1 %.not5.i.i, label %av1_is_scaled.exit.thread.i, label %31

31:                                               ; preds = %av1_is_valid_scale.exit.i.i
  %.not3.i.i = icmp eq i32 %28, 16384
  %.not24.i = icmp eq i32 %30, 16384
  %or.cond.i = and i1 %.not3.i.i, %.not24.i
  br i1 %or.cond.i, label %av1_is_scaled.exit.thread.i, label %av1_allow_warp.exit.thread

av1_is_scaled.exit.thread.i:                      ; preds = %31, %av1_is_valid_scale.exit.i.i, %16
  tail call void @llvm.memcpy.p0.p0.i64(ptr noundef nonnull align 4 dereferenceable(44) %27, ptr noundef nonnull align 4 dereferenceable(44) @default_warp_params, i64 44, i1 false)
  %32 = getelementptr inbounds nuw i8, ptr %1, i64 4
  %33 = load i32, ptr %32, align 4
  %.not17.i = icmp eq i32 %33, 0
  br i1 %.not17.i, label %39, label %34

34:                                               ; preds = %av1_is_scaled.exit.thread.i
  %35 = getelementptr inbounds i8, ptr %4, i64 69
  %36 = load i8, ptr %35, align 1
  %.not18.i = icmp eq i8 %36, 0
  br i1 %.not18.i, label %37, label %39

37:                                               ; preds = %34
  %38 = getelementptr inbounds nuw i8, ptr %4, i64 28
  br label %av1_allow_warp.exit.thread13

39:                                               ; preds = %34, %av1_is_scaled.exit.thread.i
  %40 = load i32, ptr %1, align 4
  %.not19.i = icmp eq i32 %40, 0
  br i1 %.not19.i, label %av1_allow_warp.exit.thread, label %41

41:                                               ; preds = %39
  %42 = getelementptr inbounds nuw i8, ptr %24, i64 41
  %43 = load i8, ptr %42, align 1
  %.not20.i.not = icmp eq i8 %43, 0
  br i1 %.not20.i.not, label %av1_allow_warp.exit.thread13, label %av1_allow_warp.exit.thread

av1_allow_warp.exit.thread13:                     ; preds = %41, %37
  %.sink.i = phi ptr [ %38, %37 ], [ %24, %41 ]
  tail call void @llvm.memcpy.p0.p0.i64(ptr noundef nonnull align 4 dereferenceable(44) %27, ptr noundef nonnull align 4 dereferenceable(44) %.sink.i, i64 44, i1 false)
  store i32 1, ptr %0, align 8
  br label %av1_allow_warp.exit.thread

av1_allow_warp.exit.thread:                       ; preds = %41, %31, %39, %13, %5, %9, %av1_allow_warp.exit.thread13
  ret void
}